; Function Attrs: mustprogress uwtable
define hidden void @_ZN6Assimp11X3DExporter20IndentationStringSetEm(ptr noundef nonnull align 8 dereferenceable(144) %0, i64 noundef %1) local_unnamed_addr #0 align 2 personality ptr @__gxx_personality_v0 {
  %3 = getelementptr inbounds nuw i8, ptr %0, i64 112
  %4 = getelementptr inbounds nuw i8, ptr %0, i64 120
  %5 = load i64, ptr %4, align 8
  %6 = icmp ugt i64 %1, %5
  br i1 %6, label %7, label %36

7:                                                ; preds = %2
  %8 = load ptr, ptr %3, align 8
  %9 = getelementptr inbounds nuw i8, ptr %0, i64 128
  %10 = icmp eq ptr %8, %9
  br i1 %10, label %11, label %_ZNKSt7__cxx1112basic_stringIcSt11char_traitsIcESaIcEE8capacityEv.exit

11:                                               ; preds = %7
  %12 = icmp ult i64 %5, 16
  tail call void @llvm.assume(i1 %12)
  br label %_ZNKSt7__cxx1112basic_stringIcSt11char_traitsIcESaIcEE8capacityEv.exit

_ZNKSt7__cxx1112basic_stringIcSt11char_traitsIcESaIcEE8capacityEv.exit: ; preds = %7, %11
  %13 = load i64, ptr %9, align 8
  %14 = select i1 %10, i64 15, i64 %13
  %15 = icmp ugt i64 %1, %14
  br i1 %15, label %16, label %18

16:                                               ; preds = %_ZNKSt7__cxx1112basic_stringIcSt11char_traitsIcESaIcEE8capacityEv.exit
  %17 = add i64 %1, 1
  tail call void @_ZNSt7__cxx1112basic_stringIcSt11char_traitsIcESaIcEE7reserveEm(ptr noundef nonnull align 8 dereferenceable(32) %3, i64 noundef %17)
  %.pre = load i64, ptr %4, align 8
  br label %18

18:                                               ; preds = %16, %_ZNKSt7__cxx1112basic_stringIcSt11char_traitsIcESaIcEE8capacityEv.exit
  %19 = phi i64 [ %.pre, %16 ], [ %5, %_ZNKSt7__cxx1112basic_stringIcSt11char_traitsIcESaIcEE8capacityEv.exit ]
  %20 = sub i64 %1, %19
  %.not = icmp eq i64 %1, %19
  br i1 %.not, label %.loopexit, label %.lr.ph

.lr.ph:                                           ; preds = %18, %_ZNSt7__cxx1112basic_stringIcSt11char_traitsIcESaIcEE9push_backEc.exit
  %.010 = phi i64 [ %35, %_ZNSt7__cxx1112basic_stringIcSt11char_traitsIcESaIcEE9push_backEc.exit ], [ 0, %18 ]
  %21 = load i64, ptr %4, align 8
  %22 = add i64 %21, 1
  %23 = load ptr, ptr %3, align 8
  %24 = icmp eq ptr %23, %9
  br i1 %24, label %25, label %_ZNKSt7__cxx1112basic_stringIcSt11char_traitsIcESaIcEE8capacityEv.exit.i

25:                                               ; preds = %.lr.ph
  %26 = icmp ult i64 %21, 16
  tail call void @llvm.assume(i1 %26)
  br label %_ZNKSt7__cxx1112basic_stringIcSt11char_traitsIcESaIcEE8capacityEv.exit.i

_ZNKSt7__cxx1112basic_stringIcSt11char_traitsIcESaIcEE8capacityEv.exit.i: ; preds = %25, %.lr.ph
  %27 = load i64, ptr %9, align 8
  %28 = select i1 %24, i64 15, i64 %27
  %29 = icmp ugt i64 %22, %28
  br i1 %29, label %30, label %_ZNSt7__cxx1112basic_stringIcSt11char_traitsIcESaIcEE9push_backEc.exit

30:                                               ; preds = %_ZNKSt7__cxx1112basic_stringIcSt11char_traitsIcESaIcEE8capacityEv.exit.i
  tail call void @_ZNSt7__cxx1112basic_stringIcSt11char_traitsIcESaIcEE9_M_mutateEmmPKcm(ptr noundef nonnull align 8 dereferenceable(32) %3, i64 noundef %21, i64 noundef 0, ptr noundef null, i64 noundef 1)
  %.pre.i = load ptr, ptr %3, align 8
  br label %_ZNSt7__cxx1112basic_stringIcSt11char_traitsIcESaIcEE9push_backEc.exit

_ZNSt7__cxx1112basic_stringIcSt11char_traitsIcESaIcEE9push_backEc.exit: ; preds = %_ZNKSt7__cxx1112basic_stringIcSt11char_traitsIcESaIcEE8capacityEv.exit.i, %30
  %31 = phi ptr [ %.pre.i, %30 ], [ %23, %_ZNKSt7__cxx1112basic_stringIcSt11char_traitsIcESaIcEE8capacityEv.exit.i ]
  %32 = getelementptr inbounds nuw i8, ptr %31, i64 %21
  store i8 9, ptr %32, align 1
  store i64 %22, ptr %4, align 8
  %33 = load ptr, ptr %3, align 8
  %34 = getelementptr inbounds nuw i8, ptr %33, i64 %22
  store i8 0, ptr %34, align 1
  %35 = add nuw i64 %.010, 1
  %exitcond.not = icmp eq i64 %35, %20
  br i1 %exitcond.not, label %.loopexit, label %.lr.ph, !llvm.loop !3

36:                                               ; preds = %2
  %37 = icmp ult i64 %1, %5
  br i1 %37, label %38, label %.loopexit

38:                                               ; preds = %36
  tail call void @_ZNSt7__cxx1112basic_stringIcSt11char_traitsIcESaIcEE6resizeEmc(ptr noundef nonnull align 8 dereferenceable(32) %3, i64 noundef %1, i8 noundef signext 0)
  br label %.loopexit

.loopexit:                                        ; preds = %_ZNSt7__cxx1112basic_stringIcSt11char_traitsIcESaIcEE9push_backEc.exit, %18, %36, %38
  ret void
}